target datalayout = "e-m:e-p270:32:32-p271:32:32-p272:64:64-i64:64-i128:128-f80:128-n8:16:32:64-S128"
target triple = "x86_64-pc-linux-gnu"

@opt_verbosity = internal global i32 6, align 4
@bio_err = external global ptr, align 8
@.str.351 = private unnamed_addr constant [22 x i8] c"../openssl/apps/cmp.c\00", align 1
@.str.352 = private unnamed_addr constant [6 x i8] c"error\00", align 1
@.str.353 = private unnamed_addr constant [1 x i8] zeroinitializer, align 1
@bio_out = external global ptr, align 8
@.str.355 = private unnamed_addr constant [5 x i8] c"info\00", align 1
@.str.492 = private unnamed_addr constant [52 x i8] c"%s:%s:%d:CMP %s: NULL arg to read_PKIMESSAGE%s%s%s\0A\00", align 1
@__func__.read_PKIMESSAGE = private unnamed_addr constant [16 x i8] c"read_PKIMESSAGE\00", align 1
@.str.493 = private unnamed_addr constant [78 x i8] c"%s:%s:%d:CMP %s: not enough file names provided for reading PKIMessage%s%s%s\0A\00", align 1
@.str.494 = private unnamed_addr constant [60 x i8] c"%s:%s:%d:CMP %s: cannot read PKIMessage from file '%s'%s%s\0A\00", align 1
@.str.495 = private unnamed_addr constant [26 x i8] c"%s:%s:%d:CMP %s: %s %s%s\0A\00", align 1

; Function Attrs: nounwind uwtable
define internal ptr @read_PKIMESSAGE(ptr noundef %0, ptr noundef %1) #0 {
  %3 = alloca ptr, align 8
  %4 = alloca ptr, align 8
  %5 = alloca ptr, align 8
  %6 = alloca ptr, align 8
  %7 = alloca ptr, align 8
  %8 = alloca i32, align 4
  store ptr %0, ptr %4, align 8, !tbaa !11
  store ptr %1, ptr %5, align 8, !tbaa !8
  call void @llvm.lifetime.start.p0(i64 8, ptr %6) #11
  call void @llvm.lifetime.start.p0(i64 8, ptr %7) #11
  %9 = load ptr, ptr %5, align 8, !tbaa !8
  %10 = icmp eq ptr %9, null
  br i1 %10, label %14, label %11

11:                                               ; preds = %2
  %12 = load ptr, ptr %4, align 8, !tbaa !11
  %13 = icmp eq ptr %12, null
  br i1 %13, label %14, label %22

14:                                               ; preds = %11, %2
  %15 = load i32, ptr @opt_verbosity, align 4, !tbaa !4
  %16 = icmp sgt i32 3, %15
  br i1 %16, label %17, label %18

17:                                               ; preds = %14
  br label %21

18:                                               ; preds = %14
  %19 = load ptr, ptr @bio_err, align 8, !tbaa !21
  %20 = call i32 (ptr, ptr, ...) @BIO_printf(ptr noundef %19, ptr noundef @.str.492, ptr noundef @__func__.read_PKIMESSAGE, ptr noundef @.str.351, i32 noundef 837, ptr noundef @.str.352, ptr noundef @.str.353, ptr noundef @.str.353, ptr noundef @.str.353)
  br label %21

21:                                               ; preds = %18, %17
  store ptr null, ptr %3, align 8
  store i32 1, ptr %8, align 4
  br label %67

22:                                               ; preds = %11
  %23 = load ptr, ptr %5, align 8, !tbaa !8
  %24 = load ptr, ptr %23, align 8, !tbaa !11
  %25 = icmp eq ptr %24, null
  br i1 %25, label %26, label %34

26:                                               ; preds = %22
  %27 = load i32, ptr @opt_verbosity, align 4, !tbaa !4
  %28 = icmp sgt i32 3, %27
  br i1 %28, label %29, label %30

29:                                               ; preds = %26
  br label %33

30:                                               ; preds = %26
  %31 = load ptr, ptr @bio_err, align 8, !tbaa !21
  %32 = call i32 (ptr, ptr, ...) @BIO_printf(ptr noundef %31, ptr noundef @.str.493, ptr noundef @__func__.read_PKIMESSAGE, ptr noundef @.str.351, i32 noundef 841, ptr noundef @.str.352, ptr noundef @.str.353, ptr noundef @.str.353, ptr noundef @.str.353)
  br label %33

33:                                               ; preds = %30, %29
  store ptr null, ptr %3, align 8
  store i32 1, ptr %8, align 4
  br label %67

34:                                               ; preds = %22
  %35 = load ptr, ptr %5, align 8, !tbaa !8
  %36 = load ptr, ptr %35, align 8, !tbaa !11
  store ptr %36, ptr %6, align 8, !tbaa !11
  %37 = load ptr, ptr %6, align 8, !tbaa !11
  %38 = call ptr @next_item(ptr noundef %37)
  %39 = load ptr, ptr %5, align 8, !tbaa !8
  store ptr %38, ptr %39, align 8, !tbaa !11
  %40 = load ptr, ptr %6, align 8, !tbaa !11
  %41 = call ptr @app_get0_libctx()
  %42 = call ptr @app_get0_propq()
  %43 = call ptr @OSSL_CMP_MSG_read(ptr noundef %40, ptr noundef %41, ptr noundef %42)
  store ptr %43, ptr %7, align 8, !tbaa !63
  %44 = load ptr, ptr %7, align 8, !tbaa !63
  %45 = icmp eq ptr %44, null
  br i1 %45, label %46, label %55

46:                                               ; preds = %34
  %47 = load i32, ptr @opt_verbosity, align 4, !tbaa !4
  %48 = icmp sgt i32 3, %47
  br i1 %48, label %49, label %50

49:                                               ; preds = %46
  br label %54

50:                                               ; preds = %46
  %51 = load ptr, ptr @bio_err, align 8, !tbaa !21
  %52 = load ptr, ptr %6, align 8, !tbaa !11
  %53 = call i32 (ptr, ptr, ...) @BIO_printf(ptr noundef %51, ptr noundef @.str.494, ptr noundef @__func__.read_PKIMESSAGE, ptr noundef @.str.351, i32 noundef 850, ptr noundef @.str.352, ptr noundef %52, ptr noundef @.str.353, ptr noundef @.str.353)
  br label %54

54:                                               ; preds = %50, %49
  br label %65

55:                                               ; preds = %34
  %56 = load i32, ptr @opt_verbosity, align 4, !tbaa !4
  %57 = icmp sgt i32 6, %56
  br i1 %57, label %58, label %59

58:                                               ; preds = %55
  br label %64

59:                                               ; preds = %55
  %60 = load ptr, ptr @bio_out, align 8, !tbaa !21
  %61 = load ptr, ptr %4, align 8, !tbaa !11
  %62 = load ptr, ptr %6, align 8, !tbaa !11
  %63 = call i32 (ptr, ptr, ...) @BIO_printf(ptr noundef %60, ptr noundef @.str.495, ptr noundef @__func__.read_PKIMESSAGE, ptr noundef @.str.351, i32 noundef 852, ptr noundef @.str.355, ptr noundef %61, ptr noundef %62, ptr noundef @.str.353)
  br label %64

64:                                               ; preds = %59, %58
  br label %65

65:                                               ; preds = %64, %54
  %66 = load ptr, ptr %7, align 8, !tbaa !63
  store ptr %66, ptr %3, align 8
  store i32 1, ptr %8, align 4
  br label %67

67:                                               ; preds = %65, %33, %21
  call void @llvm.lifetime.end.p0(i64 8, ptr %7) #11
  call void @llvm.lifetime.end.p0(i64 8, ptr %6) #11
  %68 = load ptr, ptr %3, align 8
  ret ptr %68
}