; Function Attrs: nounwind uwtable
define internal fastcc ptr @read_PKIMESSAGE(ptr noundef %0, ptr noundef captures(address_is_null) %1) unnamed_addr #0 {
  %3 = icmp eq ptr %1, null
  %4 = icmp eq ptr %0, null
  %or.cond = or i1 %4, %3
  br i1 %or.cond, label %5, label %11

5:                                                ; preds = %2
  %6 = load i32, ptr @opt_verbosity, align 4, !tbaa !10
  %7 = icmp slt i32 %6, 3
  br i1 %7, label %37, label %8

8:                                                ; preds = %5
  %9 = load ptr, ptr @bio_err, align 8, !tbaa !12
  %10 = tail call i32 (ptr, ptr, ...) @BIO_printf(ptr noundef %9, ptr noundef nonnull @.str.492, ptr noundef nonnull @__func__.read_PKIMESSAGE, ptr noundef nonnull @.str.351, i32 noundef 837, ptr noundef nonnull @.str.352, ptr noundef nonnull @.str.353, ptr noundef nonnull @.str.353, ptr noundef nonnull @.str.353) #12
  br label %37

11:                                               ; preds = %2
  %12 = load ptr, ptr %1, align 8, !tbaa !4
  %13 = icmp eq ptr %12, null
  br i1 %13, label %14, label %20

14:                                               ; preds = %11
  %15 = load i32, ptr @opt_verbosity, align 4, !tbaa !10
  %16 = icmp slt i32 %15, 3
  br i1 %16, label %37, label %17

17:                                               ; preds = %14
  %18 = load ptr, ptr @bio_err, align 8, !tbaa !12
  %19 = tail call i32 (ptr, ptr, ...) @BIO_printf(ptr noundef %18, ptr noundef nonnull @.str.493, ptr noundef nonnull @__func__.read_PKIMESSAGE, ptr noundef nonnull @.str.351, i32 noundef 841, ptr noundef nonnull @.str.352, ptr noundef nonnull @.str.353, ptr noundef nonnull @.str.353, ptr noundef nonnull @.str.353) #12
  br label %37

20:                                               ; preds = %11
  %21 = tail call ptr @next_item(ptr noundef nonnull %12) #12
  store ptr %21, ptr %1, align 8, !tbaa !4
  %22 = tail call ptr @app_get0_libctx() #12
  %23 = tail call ptr @app_get0_propq() #12
  %24 = tail call ptr @OSSL_CMP_MSG_read(ptr noundef nonnull %12, ptr noundef %22, ptr noundef %23) #12
  %25 = icmp eq ptr %24, null
  %26 = load i32, ptr @opt_verbosity, align 4, !tbaa !10
  br i1 %25, label %27, label %32

27:                                               ; preds = %20
  %28 = icmp slt i32 %26, 3
  br i1 %28, label %37, label %29

29:                                               ; preds = %27
  %30 = load ptr, ptr @bio_err, align 8, !tbaa !12
  %31 = tail call i32 (ptr, ptr, ...) @BIO_printf(ptr noundef %30, ptr noundef nonnull @.str.494, ptr noundef nonnull @__func__.read_PKIMESSAGE, ptr noundef nonnull @.str.351, i32 noundef 850, ptr noundef nonnull @.str.352, ptr noundef nonnull %12, ptr noundef nonnull @.str.353, ptr noundef nonnull @.str.353) #12
  br label %37

32:                                               ; preds = %20
  %33 = icmp slt i32 %26, 6
  br i1 %33, label %37, label %34

34:                                               ; preds = %32
  %35 = load ptr, ptr @bio_out, align 8, !tbaa !12
  %36 = tail call i32 (ptr, ptr, ...) @BIO_printf(ptr noundef %35, ptr noundef nonnull @.str.495, ptr noundef nonnull @__func__.read_PKIMESSAGE, ptr noundef nonnull @.str.351, i32 noundef 852, ptr noundef nonnull @.str.355, ptr noundef nonnull %0, ptr noundef nonnull %12, ptr noundef nonnull @.str.353) #12
  br label %37

37:                                               ; preds = %27, %29, %32, %34, %17, %14, %8, %5
  %.0 = phi ptr [ null, %5 ], [ null, %8 ], [ null, %14 ], [ null, %17 ], [ %24, %34 ], [ %24, %32 ], [ null, %29 ], [ null, %27 ]
  ret ptr %.0
}